target datalayout = "e-m:e-p270:32:32-p271:32:32-p272:64:64-i64:64-i128:128-f80:128-n8:16:32:64-S128"
target triple = "x86_64-pc-linux-gnu"

%struct.pxr_nc_1_0_ColorSpace = type { %struct.pxr_nc_1_0_ColorSpaceDescriptor, float, float, %struct.pxr_nc_1_0_M33f }
%struct.pxr_nc_1_0_ColorSpaceDescriptor = type { ptr, %struct.pxr_nc_1_0_Chromaticity, %struct.pxr_nc_1_0_Chromaticity, %struct.pxr_nc_1_0_Chromaticity, %struct.pxr_nc_1_0_Chromaticity, float, float }
%struct.pxr_nc_1_0_Chromaticity = type { float, float }
%struct.pxr_nc_1_0_M33f = type { [9 x float] }

@constinit = private constant [9 x float] [float 1.000000e+00, float 0.000000e+00, float 0.000000e+00, float 0.000000e+00, float 1.000000e+00, float 0.000000e+00, float 0.000000e+00, float 0.000000e+00, float 1.000000e+00], align 4

; Function Attrs: nounwind uwtable
define void @pxr_nc_1_0_GetRGBtoXYZMatrix(ptr dead_on_unwind noalias writable sret(%struct.pxr_nc_1_0_M33f) align 4 %0, ptr noundef %1) #0 {
  %3 = alloca ptr, align 8
  store ptr %1, ptr %3, align 8
  %4 = load ptr, ptr %3, align 8
  %5 = icmp ne ptr %4, null
  br i1 %5, label %8, label %6

6:                                                ; preds = %2
  %7 = getelementptr inbounds nuw %struct.pxr_nc_1_0_M33f, ptr %0, i32 0, i32 0
  call void @llvm.memcpy.p0.p0.i64(ptr align 4 %7, ptr align 4 @constinit, i64 36, i1 false)
  br label %11

8:                                                ; preds = %2
  %9 = load ptr, ptr %3, align 8
  %10 = getelementptr inbounds nuw %struct.pxr_nc_1_0_ColorSpace, ptr %9, i32 0, i32 3
  call void @llvm.memcpy.p0.p0.i64(ptr align 4 %0, ptr align 8 %10, i64 36, i1 false)
  br label %11

11:                                               ; preds = %8, %6
  ret void
}