; Function Attrs: mustprogress nofree norecurse nosync nounwind willreturn memory(argmem: readwrite) uwtable
define void @pxr_nc_1_0_GetRGBtoXYZMatrix(ptr dead_on_unwind noalias nocapture writable writeonly sret(%struct.pxr_nc_1_0_M33f) align 4 %0, ptr noundef readonly %1) local_unnamed_addr #16 {
  %.not = icmp eq ptr %1, null
  br i1 %.not, label %3, label %4

3:                                                ; preds = %2
  tail call void @llvm.memcpy.p0.p0.i64(ptr noundef nonnull align 4 dereferenceable(36) %0, ptr noundef nonnull align 4 dereferenceable(36) @constinit.19, i64 36, i1 false)
  br label %6

4:                                                ; preds = %2
  %5 = getelementptr inbounds nuw i8, ptr %1, i64 56
  tail call void @llvm.memcpy.p0.p0.i64(ptr noundef nonnull align 4 dereferenceable(36) %0, ptr noundef nonnull align 8 dereferenceable(36) %5, i64 36, i1 false)
  br label %6

6:                                                ; preds = %4, %3
  ret void
}